#include <math.h>
#include <stdio.h>
#include <stdlib.h>
#include <string.h>

int main()
{ int sum(int n,int k);
int n,k,s;
scanf("%d %d",&n,&k);
s=sum(n,k);
printf("%d",s);
return 0;
}
int sum(int n,int k){
	int s,i;
s=n;
for(i=1;i<n-1;i++)
s=s*n;
s=s-k;
s=s*n+k;
return s;
}