; ModuleID = '54/944.c'
source_filename = "54/944.c"
target datalayout = "e-m:e-p270:32:32-p271:32:32-p272:64:64-i64:64-f80:128-n8:16:32:64-S128"
target triple = "x86_64-pc-linux-gnu"

@.str = private unnamed_addr constant [6 x i8] c"%d %d\00", align 1
@.str.1 = private unnamed_addr constant [3 x i8] c"%d\00", align 1

; Function Attrs: noinline nounwind uwtable
define dso_local i32 @main() #0 {
  %1 = alloca i32, align 4
  %2 = alloca i32, align 4
  %3 = alloca i32, align 4
  %4 = alloca i32, align 4
  store i32 0, i32* %1, align 4
  %5 = call i32 (i8*, ...) @__isoc99_scanf(i8* getelementptr inbounds ([6 x i8], [6 x i8]* @.str, i64 0, i64 0), i32* %2, i32* %3)
  %6 = load i32, i32* %2, align 4
  %7 = load i32, i32* %3, align 4
  %8 = call i32 @sum(i32 %6, i32 %7)
  store i32 %8, i32* %4, align 4
  %9 = load i32, i32* %4, align 4
  %10 = call i32 (i8*, ...) @printf(i8* getelementptr inbounds ([3 x i8], [3 x i8]* @.str.1, i64 0, i64 0), i32 %9)
  ret i32 0
}

declare dso_local i32 @__isoc99_scanf(i8*, ...) #1

; Function Attrs: noinline nounwind uwtable
define dso_local i32 @sum(i32 %0, i32 %1) #0 {
  %3 = alloca i32, align 4
  %4 = alloca i32, align 4
  %5 = alloca i32, align 4
  %6 = alloca i32, align 4
  store i32 %0, i32* %3, align 4
  store i32 %1, i32* %4, align 4
  %7 = load i32, i32* %3, align 4
  store i32 %7, i32* %5, align 4
  store i32 1, i32* %6, align 4
  br label %8

8:                                                ; preds = %17, %2
  %9 = load i32, i32* %6, align 4
  %10 = load i32, i32* %3, align 4
  %11 = sub nsw i32 %10, 1
  %12 = icmp slt i32 %9, %11
  br i1 %12, label %13, label %20

13:                                               ; preds = %8
  %14 = load i32, i32* %5, align 4
  %15 = load i32, i32* %3, align 4
  %16 = mul nsw i32 %14, %15
  store i32 %16, i32* %5, align 4
  br label %17

17:                                               ; preds = %13
  %18 = load i32, i32* %6, align 4
  %19 = add nsw i32 %18, 1
  store i32 %19, i32* %6, align 4
  br label %8

20:                                               ; preds = %8
  %21 = load i32, i32* %5, align 4
  %22 = load i32, i32* %4, align 4
  %23 = sub nsw i32 %21, %22
  store i32 %23, i32* %5, align 4
  %24 = load i32, i32* %5, align 4
  %25 = load i32, i32* %3, align 4
  %26 = mul nsw i32 %24, %25
  %27 = load i32, i32* %4, align 4
  %28 = add nsw i32 %26, %27
  store i32 %28, i32* %5, align 4
  %29 = load i32, i32* %5, align 4
  ret i32 %29
}

declare dso_local i32 @printf(i8*, ...) #1


!llvm.module.flags = !{!0}
!llvm.ident = !{!1}

!0 = !{i32 1, !"wchar_size", i32 4}
!1 = !{!"clang version 10.0.0-4ubuntu1 "}
